; Function Attrs: mustprogress uwtable
define hidden void @_Z14format2ostreamRSoPKcP13__va_list_tag(ptr noundef nonnull align 8 dereferenceable(8) %0, ptr noundef readonly captures(none) %1, ptr noundef %2) local_unnamed_addr #5 personality ptr @__gxx_personality_v0 {
_ZNK6vectorIcLb0EjE4sizeEv.exit.i:
  %3 = alloca %class.svector, align 8
  %4 = alloca [1 x %struct.__va_list_tag], align 16
  call void @llvm.lifetime.start.p0(i64 8, ptr nonnull %3) #22
  store ptr null, ptr %3, align 8, !tbaa !10
  call void @llvm.lifetime.start.p0(i64 24, ptr nonnull %4) #22
  call void @llvm.va_copy.p0(ptr nonnull %4, ptr %2)
  %5 = call i32 @vsnprintf(ptr noundef null, i64 noundef 0, ptr noundef %1, ptr noundef nonnull %4) #22
  call void @llvm.va_end.p0(ptr nonnull %4)
  %6 = add i32 %5, 1
  %.not.not.i = icmp eq i32 %6, 0
  br i1 %.not.not.i, label %_ZNK6vectorIcLb0EjE4sizeEv.exit, label %.preheader

thread-pre-split.i:                               ; preds = %_ZNK6vectorIcLb0EjE8capacityEv.exit.thread.i
  %.pr.pre.i = load ptr, ptr %3, align 8, !tbaa !10
  br label %.preheader

.preheader:                                       ; preds = %_ZNK6vectorIcLb0EjE4sizeEv.exit.i, %thread-pre-split.i
  %7 = phi ptr [ %.pr.pre.i, %thread-pre-split.i ], [ null, %_ZNK6vectorIcLb0EjE4sizeEv.exit.i ]
  %8 = icmp eq ptr %7, null
  br i1 %8, label %_ZNK6vectorIcLb0EjE8capacityEv.exit.thread.i, label %_ZNK6vectorIcLb0EjE8capacityEv.exit.i

_ZNK6vectorIcLb0EjE8capacityEv.exit.i:            ; preds = %.preheader
  %9 = getelementptr inbounds i8, ptr %7, i64 -8
  %10 = load i32, ptr %9, align 4, !tbaa !13
  %11 = icmp ugt i32 %6, %10
  br i1 %11, label %_ZNK6vectorIcLb0EjE8capacityEv.exit.thread.i, label %_ZN6vectorIcLb0EjE6resizeEj.exit

_ZNK6vectorIcLb0EjE8capacityEv.exit.thread.i:     ; preds = %_ZNK6vectorIcLb0EjE8capacityEv.exit.i, %.preheader
  invoke void @_ZN6vectorIcLb0EjE13expand_vectorEv(ptr noundef nonnull align 8 dereferenceable(8) %3)
          to label %thread-pre-split.i unwind label %.loopexit

_ZN6vectorIcLb0EjE6resizeEj.exit:                 ; preds = %_ZNK6vectorIcLb0EjE8capacityEv.exit.i
  %12 = getelementptr inbounds i8, ptr %7, i64 -4
  store i32 %6, ptr %12, align 4, !tbaa !13
  %13 = zext i32 %6 to i64
  call void @llvm.memset.p0.i64(ptr nonnull align 1 %7, i8 0, i64 %13, i1 false), !tbaa !15
  %.pr.pre = load ptr, ptr %3, align 8, !tbaa !10
  %14 = icmp eq ptr %.pr.pre, null
  br i1 %14, label %_ZNK6vectorIcLb0EjE4sizeEv.exit, label %15

15:                                               ; preds = %_ZN6vectorIcLb0EjE6resizeEj.exit
  %16 = getelementptr inbounds i8, ptr %.pr.pre, i64 -4
  %17 = load i32, ptr %16, align 4, !tbaa !13
  %18 = zext i32 %17 to i64
  br label %_ZNK6vectorIcLb0EjE4sizeEv.exit

_ZNK6vectorIcLb0EjE4sizeEv.exit:                  ; preds = %_ZNK6vectorIcLb0EjE4sizeEv.exit.i, %_ZN6vectorIcLb0EjE6resizeEj.exit, %15
  %19 = phi ptr [ %.pr.pre, %15 ], [ null, %_ZN6vectorIcLb0EjE6resizeEj.exit ], [ null, %_ZNK6vectorIcLb0EjE4sizeEv.exit.i ]
  %.0.i = phi i64 [ %18, %15 ], [ 0, %_ZN6vectorIcLb0EjE6resizeEj.exit ], [ 0, %_ZNK6vectorIcLb0EjE4sizeEv.exit.i ]
  %20 = call i32 @vsnprintf(ptr noundef %19, i64 noundef %.0.i, ptr noundef %1, ptr noundef %2) #22
  %21 = load ptr, ptr %3, align 8, !tbaa !10
  %.not.i = icmp eq ptr %21, null
  br i1 %.not.i, label %22, label %30

22:                                               ; preds = %_ZNK6vectorIcLb0EjE4sizeEv.exit
  %23 = load ptr, ptr %0, align 8, !tbaa !16
  %24 = getelementptr i8, ptr %23, i64 -24
  %25 = load i64, ptr %24, align 8
  %26 = getelementptr inbounds i8, ptr %0, i64 %25
  %27 = getelementptr inbounds nuw i8, ptr %26, i64 32
  %28 = load i32, ptr %27, align 8, !tbaa !18
  %29 = or i32 %28, 1
  invoke void @_ZNSt9basic_iosIcSt11char_traitsIcEE5clearESt12_Ios_Iostate(ptr noundef nonnull align 8 dereferenceable(264) %26, i32 noundef %29)
          to label %_ZStlsISt11char_traitsIcEERSt13basic_ostreamIcT_ES5_PKc.exit unwind label %.loopexit.split-lp

30:                                               ; preds = %_ZNK6vectorIcLb0EjE4sizeEv.exit
  %31 = call noundef i64 @strlen(ptr noundef nonnull dereferenceable(1) %21) #22
  %32 = invoke noundef nonnull align 8 dereferenceable(8) ptr @_ZSt16__ostream_insertIcSt11char_traitsIcEERSt13basic_ostreamIT_T0_ES6_PKS3_l(ptr noundef nonnull align 8 dereferenceable(8) %0, ptr noundef nonnull %21, i64 noundef %31)
          to label %_ZStlsISt11char_traitsIcEERSt13basic_ostreamIcT_ES5_PKc.exit unwind label %.loopexit.split-lp

_ZStlsISt11char_traitsIcEERSt13basic_ostreamIcT_ES5_PKc.exit: ; preds = %22, %30
  call void @llvm.lifetime.end.p0(i64 24, ptr nonnull %4) #22
  %33 = load ptr, ptr %3, align 8, !tbaa !10
  %.not.i.i = icmp eq ptr %33, null
  br i1 %.not.i.i, label %_ZN6vectorIcLb0EjED2Ev.exit, label %34

34:                                               ; preds = %_ZStlsISt11char_traitsIcEERSt13basic_ostreamIcT_ES5_PKc.exit
  %35 = getelementptr inbounds i8, ptr %33, i64 -8
  invoke void @_ZN6memory10deallocateEPv(ptr noundef nonnull %35)
          to label %_ZN6vectorIcLb0EjED2Ev.exit unwind label %36

36:                                               ; preds = %34
  %37 = landingpad { ptr, i32 }
          catch ptr null
  %38 = extractvalue { ptr, i32 } %37, 0
  call void @__clang_call_terminate(ptr %38) #23
  unreachable

_ZN6vectorIcLb0EjED2Ev.exit:                      ; preds = %_ZStlsISt11char_traitsIcEERSt13basic_ostreamIcT_ES5_PKc.exit, %34
  call void @llvm.lifetime.end.p0(i64 8, ptr nonnull %3) #22
  ret void

.loopexit:                                        ; preds = %_ZNK6vectorIcLb0EjE8capacityEv.exit.thread.i
  %lpad.loopexit = landingpad { ptr, i32 }
          cleanup
  br label %39

.loopexit.split-lp:                               ; preds = %22, %30
  %lpad.loopexit.split-lp = landingpad { ptr, i32 }
          cleanup
  br label %39

39:                                               ; preds = %.loopexit.split-lp, %.loopexit
  %lpad.phi = phi { ptr, i32 } [ %lpad.loopexit, %.loopexit ], [ %lpad.loopexit.split-lp, %.loopexit.split-lp ]
  call void @llvm.lifetime.end.p0(i64 24, ptr nonnull %4) #22
  call void @_ZN6vectorIcLb0EjED2Ev(ptr noundef nonnull align 8 dereferenceable(8) %3) #22
  call void @llvm.lifetime.end.p0(i64 8, ptr nonnull %3) #22
  resume { ptr, i32 } %lpad.phi
}